ccopy_reg
_reconstructor
p0
(csklearn.cluster.k_means_
KMeans
p1
c__builtin__
object
p2
Ntp3
Rp4
(dp5
S'precompute_distances'
p6
S'auto'
p7
sS'n_jobs'
p8
I2
sS'verbose'
p9
I01
sS'n_clusters'
p10
I5636
sS'max_iter'
p11
I300
sS'init'
p12
S'k-means++'
p13
sS'random_state'
p14
NsS'n_init'
p15
I10
sS'tol'
p16
F0.0001
sS'copy_x'
p17
I01
sb.